; Function Attrs: nounwind uwtable
define ptr @l_Lake_Toml_mlBasicStringFn(ptr noundef %0, ptr noundef %1) #1 {
  %3 = getelementptr inbounds nuw i8, ptr %1, i64 24
  %4 = load ptr, ptr %3, align 8, !tbaa !10
  %5 = ptrtoint ptr %4 to i64
  %6 = and i64 %5, 1
  %.not = icmp eq i64 %6, 0
  br i1 %.not, label %7, label %lean_inc.exit21

7:                                                ; preds = %2
  %.val.i = load i32, ptr %4, align 4, !tbaa !4
  %8 = icmp sgt i32 %.val.i, 0
  br i1 %8, label %9, label %11, !prof !9

9:                                                ; preds = %7
  %10 = add nuw i32 %.val.i, 1
  store i32 %10, ptr %4, align 4, !tbaa !4
  br label %lean_inc.exit21

11:                                               ; preds = %7
  %.not.i24 = icmp eq i32 %.val.i, 0
  br i1 %.not.i24, label %lean_inc.exit21, label %12

12:                                               ; preds = %11
  tail call void @lean_inc_ref_cold(ptr noundef nonnull %4) #4
  br label %lean_inc.exit21

lean_inc.exit21:                                  ; preds = %12, %11, %9, %2
  %13 = load ptr, ptr @l_Lake_Toml_mlBasicStringFn___closed__4, align 8, !tbaa !10
  %14 = ptrtoint ptr %0 to i64
  %15 = and i64 %14, 1
  %.not31 = icmp eq i64 %15, 0
  br i1 %.not31, label %16, label %lean_inc.exit20

16:                                               ; preds = %lean_inc.exit21
  %.val.i25 = load i32, ptr %0, align 4, !tbaa !4
  %17 = icmp sgt i32 %.val.i25, 0
  br i1 %17, label %18, label %20, !prof !9

18:                                               ; preds = %16
  %19 = add nuw i32 %.val.i25, 1
  store i32 %19, ptr %0, align 4, !tbaa !4
  br label %lean_inc.exit20

20:                                               ; preds = %16
  %.not.i26 = icmp eq i32 %.val.i25, 0
  br i1 %.not.i26, label %lean_inc.exit20, label %21

21:                                               ; preds = %20
  tail call void @lean_inc_ref_cold(ptr noundef nonnull %0) #4
  br label %lean_inc.exit20

lean_inc.exit20:                                  ; preds = %21, %20, %18, %lean_inc.exit21
  %22 = tail call ptr @l_Lean_Parser_atomicFn(ptr noundef %13, ptr noundef %0, ptr noundef nonnull %1) #4
  %23 = getelementptr inbounds nuw i8, ptr %22, i64 40
  %24 = load ptr, ptr %23, align 8, !tbaa !10
  %25 = ptrtoint ptr %24 to i64
  %26 = and i64 %25, 1
  %.not32 = icmp eq i64 %26, 0
  br i1 %.not32, label %27, label %lean_inc.exit

27:                                               ; preds = %lean_inc.exit20
  %.val.i28 = load i32, ptr %24, align 4, !tbaa !4
  %28 = icmp sgt i32 %.val.i28, 0
  br i1 %28, label %29, label %31, !prof !9

29:                                               ; preds = %27
  %30 = add nuw i32 %.val.i28, 1
  store i32 %30, ptr %24, align 4, !tbaa !4
  br label %lean_inc.exit

31:                                               ; preds = %27
  %.not.i29 = icmp eq i32 %.val.i28, 0
  br i1 %.not.i29, label %lean_inc.exit, label %32

32:                                               ; preds = %31
  tail call void @lean_inc_ref_cold(ptr noundef nonnull %24) #4
  br label %lean_inc.exit

lean_inc.exit:                                    ; preds = %32, %31, %29, %lean_inc.exit20
  %33 = tail call zeroext i8 @l_Option_beqOption____x40_Init_Data_Option_Basic___hyg_160____at_Lean_Parser_ParserState_hasError___spec__1(ptr noundef %24, ptr noundef nonnull inttoptr (i64 1 to ptr)) #4
  %34 = icmp eq i8 %33, 0
  br i1 %34, label %35, label %50

35:                                               ; preds = %lean_inc.exit
  br i1 %.not, label %36, label %lean_dec.exit19

36:                                               ; preds = %35
  %37 = load i32, ptr %4, align 4, !tbaa !4
  %38 = icmp sgt i32 %37, 1
  br i1 %38, label %39, label %41, !prof !9

39:                                               ; preds = %36
  %40 = add nsw i32 %37, -1
  store i32 %40, ptr %4, align 4, !tbaa !4
  br label %lean_dec.exit19

41:                                               ; preds = %36
  %.not.i = icmp eq i32 %37, 0
  br i1 %.not.i, label %lean_dec.exit19, label %42

42:                                               ; preds = %41
  tail call void @lean_dec_ref_cold(ptr noundef nonnull %4) #4
  br label %lean_dec.exit19

lean_dec.exit19:                                  ; preds = %42, %41, %39, %35
  br i1 %.not31, label %43, label %lean_dec.exit

43:                                               ; preds = %lean_dec.exit19
  %44 = load i32, ptr %0, align 4, !tbaa !4
  %45 = icmp sgt i32 %44, 1
  br i1 %45, label %46, label %48, !prof !9

46:                                               ; preds = %43
  %47 = add nsw i32 %44, -1
  store i32 %47, ptr %0, align 4, !tbaa !4
  br label %lean_dec.exit

48:                                               ; preds = %43
  %.not.i22 = icmp eq i32 %44, 0
  br i1 %.not.i22, label %lean_dec.exit, label %49

49:                                               ; preds = %48
  tail call void @lean_dec_ref_cold(ptr noundef nonnull %0) #4
  br label %lean_dec.exit

50:                                               ; preds = %lean_inc.exit
  %51 = tail call ptr @l_Lake_Toml_mlBasicStringAuxFn(ptr noundef %4, ptr noundef nonnull inttoptr (i64 1 to ptr), ptr noundef %0, ptr noundef nonnull %22)
  br label %lean_dec.exit

lean_dec.exit:                                    ; preds = %lean_dec.exit19, %46, %48, %49, %50
  %.0 = phi ptr [ %51, %50 ], [ %22, %49 ], [ %22, %48 ], [ %22, %46 ], [ %22, %lean_dec.exit19 ]
  ret ptr %.0
}